target datalayout = "e-m:e-p270:32:32-p271:32:32-p272:64:64-i64:64-i128:128-f80:128-n8:16:32:64-S128"
target triple = "x86_64-pc-linux-gnu"

%struct.logcat_phdr = type { i32 }
%struct.logger_entry = type { i16, i16, i32, i32, i32, i32 }
%struct.wtap_rec = type { i32, i32, i32, %struct.nstime_t, i32, %struct.nstime_t, i8, %union.anon.0, ptr, i8, %struct.Buffer, %struct.Buffer }
%struct.nstime_t = type { i64, i32 }
%union.anon.0 = type { %struct.wtap_packet_header }
%struct.wtap_packet_header = type { i32, i32, i32, i32, %union.wtap_pseudo_header }
%union.wtap_pseudo_header = type { %struct.erf_mc_phdr }
%struct.erf_mc_phdr = type { %struct.erf_phdr, [16 x %struct.erf_ehdr], %union.anon.2 }
%struct.erf_phdr = type { i64, i8, i8, i16, i16, i16 }
%struct.erf_ehdr = type { i64 }
%union.anon.2 = type { i32 }
%struct.Buffer = type { ptr, i64, i64, i64 }

; Function Attrs: alwaysinline nounwind
define internal ptr @memcpy.inline(ptr noalias %0, ptr noalias %1, i64 %2) #9 {
  %4 = alloca ptr, align 8
  %5 = alloca ptr, align 8
  %6 = alloca i64, align 8
  store ptr %0, ptr %4, align 8
  store ptr %1, ptr %5, align 8
  store i64 %2, ptr %6, align 8
  %7 = load ptr, ptr %4, align 8
  %8 = load ptr, ptr %5, align 8
  %9 = load i64, ptr %6, align 8
  %10 = load ptr, ptr %4, align 8
  %11 = call i64 @llvm.objectsize.i64.p0(ptr %10, i1 false, i1 true, i1 true)
  %12 = call ptr @__memcpy_chk(ptr noundef %7, ptr noundef %8, i64 noundef %9, i64 noundef %11) #12
  ret ptr %12
}

; Function Attrs: inlinehint nounwind null_pointer_is_valid sspstrong uwtable
define internal ptr @ws_buffer_start_ptr(ptr noundef %0) #7 {
  %2 = alloca ptr, align 8
  store ptr %0, ptr %2, align 8
  %3 = load ptr, ptr %2, align 8
  %4 = getelementptr inbounds nuw %struct.Buffer, ptr %3, i32 0, i32 0
  %5 = load ptr, ptr %4, align 8
  %6 = load ptr, ptr %2, align 8
  %7 = getelementptr inbounds nuw %struct.Buffer, ptr %6, i32 0, i32 2
  %8 = load i64, ptr %7, align 8
  %9 = getelementptr i8, ptr %5, i64 %8
  ret ptr %9
}

; Function Attrs: inlinehint nounwind null_pointer_is_valid sspstrong uwtable
define internal zeroext i16 @pletoh16(ptr noundef %0) #7 {
  %2 = alloca ptr, align 8
  store ptr %0, ptr %2, align 8
  %3 = load ptr, ptr %2, align 8
  %4 = getelementptr i8, ptr %3, i64 1
  %5 = load i8, ptr %4, align 1
  %6 = zext i8 %5 to i16
  %7 = zext i16 %6 to i32
  %8 = shl i32 %7, 8
  %9 = load ptr, ptr %2, align 8
  %10 = getelementptr i8, ptr %9, i64 0
  %11 = load i8, ptr %10, align 1
  %12 = zext i8 %11 to i16
  %13 = zext i16 %12 to i32
  %14 = shl i32 %13, 0
  %15 = or i32 %8, %14
  %16 = trunc i32 %15 to i16
  ret i16 %16
}

; Function Attrs: null_pointer_is_valid sspstrong uwtable
define internal zeroext i1 @logcat_read_packet(ptr noundef %0, ptr noundef %1, ptr noundef %2, ptr noundef %3, ptr noundef %4) #2 {
  %6 = alloca i1, align 1
  %7 = alloca ptr, align 8
  %8 = alloca ptr, align 8
  %9 = alloca ptr, align 8
  %10 = alloca ptr, align 8
  %11 = alloca ptr, align 8
  %12 = alloca i32, align 4
  %13 = alloca i16, align 2
  %14 = alloca [2 x i32], align 4
  %15 = alloca ptr, align 8
  %16 = alloca ptr, align 8
  %17 = alloca i32, align 4
  store ptr %0, ptr %7, align 8
  store ptr %1, ptr %8, align 8
  store ptr %2, ptr %9, align 8
  store ptr %3, ptr %10, align 8
  store ptr %4, ptr %11, align 8
  call void @llvm.lifetime.start.p0(i64 4, ptr %12) #12
  call void @llvm.lifetime.start.p0(i64 2, ptr %13) #12
  call void @llvm.lifetime.start.p0(i64 8, ptr %14) #12
  call void @llvm.lifetime.start.p0(i64 8, ptr %15) #12
  call void @llvm.lifetime.start.p0(i64 8, ptr %16) #12
  %18 = load ptr, ptr %8, align 8
  %19 = load ptr, ptr %10, align 8
  %20 = load ptr, ptr %11, align 8
  %21 = call zeroext i1 @wtap_read_bytes_or_eof(ptr noundef %18, ptr noundef %14, i32 noundef 2, ptr noundef %19, ptr noundef %20)
  br i1 %21, label %23, label %22

22:                                               ; preds = %5
  store i1 false, ptr %6, align 1
  store i32 1, ptr %17, align 4
  br label %102

23:                                               ; preds = %5
  %24 = getelementptr inbounds [2 x i32], ptr %14, i64 0, i64 0
  %25 = call zeroext i16 @pletoh16(ptr noundef %24)
  store i16 %25, ptr %13, align 2
  %26 = load ptr, ptr %7, align 8
  %27 = getelementptr inbounds nuw %struct.logcat_phdr, ptr %26, i32 0, i32 0
  %28 = load i32, ptr %27, align 4
  %29 = icmp eq i32 %28, 1
  br i1 %29, label %30, label %34

30:                                               ; preds = %23
  %31 = load i16, ptr %13, align 2
  %32 = zext i16 %31 to i32
  %33 = add i32 20, %32
  store i32 %33, ptr %12, align 4
  br label %45

34:                                               ; preds = %23
  %35 = load ptr, ptr %7, align 8
  %36 = getelementptr inbounds nuw %struct.logcat_phdr, ptr %35, i32 0, i32 0
  %37 = load i32, ptr %36, align 4
  %38 = icmp eq i32 %37, 2
  br i1 %38, label %39, label %43

39:                                               ; preds = %34
  %40 = load i16, ptr %13, align 2
  %41 = zext i16 %40 to i32
  %42 = add i32 24, %41
  store i32 %42, ptr %12, align 4
  br label %44

43:                                               ; preds = %34
  store i1 false, ptr %6, align 1
  store i32 1, ptr %17, align 4
  br label %102

44:                                               ; preds = %39
  br label %45

45:                                               ; preds = %44, %30
  %46 = load ptr, ptr %9, align 8
  %47 = getelementptr inbounds nuw %struct.wtap_rec, ptr %46, i32 0, i32 11
  %48 = load i32, ptr %12, align 4
  %49 = sext i32 %48 to i64
  call void @ws_buffer_assure_space(ptr noundef %47, i64 noundef %49)
  %50 = load ptr, ptr %9, align 8
  %51 = getelementptr inbounds nuw %struct.wtap_rec, ptr %50, i32 0, i32 11
  %52 = call ptr @ws_buffer_start_ptr(ptr noundef %51)
  store ptr %52, ptr %15, align 8
  %53 = load ptr, ptr %15, align 8
  store ptr %53, ptr %16, align 8
  %54 = load ptr, ptr %15, align 8
  %55 = getelementptr inbounds [2 x i32], ptr %14, i64 0, i64 0
  %56 = call ptr @memcpy.inline(ptr noundef %54, ptr noundef %55, i64 noundef 2) #12
  %57 = load ptr, ptr %8, align 8
  %58 = load ptr, ptr %15, align 8
  %59 = getelementptr i8, ptr %58, i64 2
  %60 = load i32, ptr %12, align 4
  %61 = sub i32 %60, 2
  %62 = load ptr, ptr %10, align 8
  %63 = load ptr, ptr %11, align 8
  %64 = call zeroext i1 @wtap_read_bytes(ptr noundef %57, ptr noundef %59, i32 noundef %61, ptr noundef %62, ptr noundef %63)
  br i1 %64, label %66, label %65

65:                                               ; preds = %45
  store i1 false, ptr %6, align 1
  store i32 1, ptr %17, align 4
  br label %102

66:                                               ; preds = %45
  %67 = load ptr, ptr %9, align 8
  %68 = getelementptr inbounds nuw %struct.wtap_rec, ptr %67, i32 0, i32 0
  store i32 0, ptr %68, align 8
  %69 = call ptr @wtap_block_create(i32 noundef 5)
  %70 = load ptr, ptr %9, align 8
  %71 = getelementptr inbounds nuw %struct.wtap_rec, ptr %70, i32 0, i32 8
  store ptr %69, ptr %71, align 8
  %72 = load ptr, ptr %9, align 8
  %73 = getelementptr inbounds nuw %struct.wtap_rec, ptr %72, i32 0, i32 1
  store i32 1, ptr %73, align 4
  %74 = load ptr, ptr %16, align 8
  %75 = getelementptr inbounds nuw %struct.logger_entry, ptr %74, i32 0, i32 4
  %76 = load i32, ptr %75, align 4
  %77 = sext i32 %76 to i64
  %78 = load ptr, ptr %9, align 8
  %79 = getelementptr inbounds nuw %struct.wtap_rec, ptr %78, i32 0, i32 3
  %80 = getelementptr inbounds nuw %struct.nstime_t, ptr %79, i32 0, i32 0
  store i64 %77, ptr %80, align 8
  %81 = load ptr, ptr %16, align 8
  %82 = getelementptr inbounds nuw %struct.logger_entry, ptr %81, i32 0, i32 5
  %83 = load i32, ptr %82, align 4
  %84 = load ptr, ptr %9, align 8
  %85 = getelementptr inbounds nuw %struct.wtap_rec, ptr %84, i32 0, i32 3
  %86 = getelementptr inbounds nuw %struct.nstime_t, ptr %85, i32 0, i32 1
  store i32 %83, ptr %86, align 8
  %87 = load i32, ptr %12, align 4
  %88 = load ptr, ptr %9, align 8
  %89 = getelementptr inbounds nuw %struct.wtap_rec, ptr %88, i32 0, i32 7
  %90 = getelementptr inbounds nuw %struct.wtap_packet_header, ptr %89, i32 0, i32 0
  store i32 %87, ptr %90, align 8
  %91 = load i32, ptr %12, align 4
  %92 = load ptr, ptr %9, align 8
  %93 = getelementptr inbounds nuw %struct.wtap_rec, ptr %92, i32 0, i32 7
  %94 = getelementptr inbounds nuw %struct.wtap_packet_header, ptr %93, i32 0, i32 1
  store i32 %91, ptr %94, align 4
  %95 = load ptr, ptr %7, align 8
  %96 = getelementptr inbounds nuw %struct.logcat_phdr, ptr %95, i32 0, i32 0
  %97 = load i32, ptr %96, align 4
  %98 = load ptr, ptr %9, align 8
  %99 = getelementptr inbounds nuw %struct.wtap_rec, ptr %98, i32 0, i32 7
  %100 = getelementptr inbounds nuw %struct.wtap_packet_header, ptr %99, i32 0, i32 4
  %101 = getelementptr inbounds nuw %struct.logcat_phdr, ptr %100, i32 0, i32 0
  store i32 %97, ptr %101, align 8
  store i1 true, ptr %6, align 1
  store i32 1, ptr %17, align 4
  br label %102

102:                                              ; preds = %66, %65, %43, %22
  call void @llvm.lifetime.end.p0(i64 8, ptr %16) #12
  call void @llvm.lifetime.end.p0(i64 8, ptr %15) #12
  call void @llvm.lifetime.end.p0(i64 8, ptr %14) #12
  call void @llvm.lifetime.end.p0(i64 2, ptr %13) #12
  call void @llvm.lifetime.end.p0(i64 4, ptr %12) #12
  %103 = load i1, ptr %6, align 1
  ret i1 %103
}