; Function Attrs: null_pointer_is_valid sspstrong uwtable
define internal fastcc noundef zeroext i1 @logcat_read_packet(ptr noundef readonly captures(none) %0, ptr noundef %1, ptr noundef %2, ptr noundef %3, ptr noundef %4) unnamed_addr #2 {
  %6 = alloca [2 x i32], align 4
  call void @llvm.lifetime.start.p0(i64 8, ptr nonnull %6) #10
  %7 = call zeroext i1 @wtap_read_bytes_or_eof(ptr noundef %1, ptr noundef nonnull %6, i32 noundef 2, ptr noundef %3, ptr noundef %4)
  br i1 %7, label %8, label %41

8:                                                ; preds = %5
  %.val = load i8, ptr %6, align 4
  %9 = getelementptr inbounds nuw i8, ptr %6, i64 1
  %.val32 = load i8, ptr %9, align 1
  %10 = zext i8 %.val32 to i32
  %11 = shl nuw nsw i32 %10, 8
  %12 = zext i8 %.val to i32
  %13 = or disjoint i32 %11, %12
  %14 = load i32, ptr %0, align 4
  switch i32 %14, label %41 [
    i32 1, label %16
    i32 2, label %15
  ]

15:                                               ; preds = %8
  br label %16

16:                                               ; preds = %8, %15
  %.sink35 = phi i32 [ 24, %15 ], [ 20, %8 ]
  %17 = add nuw nsw i32 %13, %.sink35
  %18 = getelementptr inbounds nuw i8, ptr %2, i64 280
  %19 = zext nneg i32 %17 to i64
  call void @ws_buffer_assure_space(ptr noundef nonnull %18, i64 noundef %19)
  %.val33 = load ptr, ptr %18, align 8
  %20 = getelementptr i8, ptr %2, i64 296
  %.val34 = load i64, ptr %20, align 8
  %21 = getelementptr i8, ptr %.val33, i64 %.val34
  %22 = load i16, ptr %6, align 4
  store i16 %22, ptr %21, align 1
  %23 = getelementptr i8, ptr %21, i64 2
  %24 = add nsw i32 %17, -2
  %25 = call zeroext i1 @wtap_read_bytes(ptr noundef %1, ptr noundef %23, i32 noundef %24, ptr noundef %3, ptr noundef %4)
  br i1 %25, label %26, label %41

26:                                               ; preds = %16
  store i32 0, ptr %2, align 8
  %27 = call ptr @wtap_block_create(i32 noundef 5)
  %28 = getelementptr inbounds nuw i8, ptr %2, i64 232
  store ptr %27, ptr %28, align 8
  %29 = getelementptr inbounds nuw i8, ptr %2, i64 4
  store i32 1, ptr %29, align 4
  %30 = getelementptr inbounds nuw i8, ptr %21, i64 12
  %31 = load i32, ptr %30, align 4
  %32 = sext i32 %31 to i64
  %33 = getelementptr inbounds nuw i8, ptr %2, i64 16
  store i64 %32, ptr %33, align 8
  %34 = getelementptr inbounds nuw i8, ptr %21, i64 16
  %35 = load i32, ptr %34, align 4
  %36 = getelementptr inbounds nuw i8, ptr %2, i64 24
  store i32 %35, ptr %36, align 8
  %37 = getelementptr inbounds nuw i8, ptr %2, i64 64
  store i32 %17, ptr %37, align 8
  %38 = getelementptr inbounds nuw i8, ptr %2, i64 68
  store i32 %17, ptr %38, align 4
  %39 = load i32, ptr %0, align 4
  %40 = getelementptr inbounds nuw i8, ptr %2, i64 80
  store i32 %39, ptr %40, align 8
  br label %41

41:                                               ; preds = %16, %8, %5, %26
  %.0 = phi i1 [ true, %26 ], [ false, %5 ], [ false, %8 ], [ false, %16 ]
  call void @llvm.lifetime.end.p0(i64 8, ptr nonnull %6) #10
  ret i1 %.0
}